target datalayout = "e-m:e-p270:32:32-p271:32:32-p272:64:64-i64:64-i128:128-f80:128-n8:16:32:64-S128"
target triple = "x86_64-pc-linux-gnu"

%struct.SDL_AudioQueue = type { ptr, ptr, ptr, i64, i64, %struct.SDL_MemoryPool, %struct.SDL_MemoryPool }
%struct.SDL_MemoryPool = type { ptr, i64, i64, i64 }
%struct.SDL_AudioTrack = type { %struct.SDL_AudioSpec, ptr, i8, ptr, ptr, ptr, ptr, i64, i64, i64, [8 x i32] }
%struct.SDL_AudioSpec = type { i32, i32, i32 }

; Function Attrs: nounwind uwtable
define internal i64 @WriteToAudioTrack(ptr noundef %0, ptr noundef %1, i64 noundef %2) #0 {
  %4 = alloca i64, align 8
  %5 = alloca ptr, align 8
  %6 = alloca ptr, align 8
  %7 = alloca i64, align 8
  store ptr %0, ptr %5, align 8
  store ptr %1, ptr %6, align 8
  store i64 %2, ptr %7, align 8
  %8 = load ptr, ptr %5, align 8
  %9 = getelementptr inbounds nuw %struct.SDL_AudioTrack, ptr %8, i32 0, i32 2
  %10 = load i8, ptr %9, align 8, !range !7, !noundef !8
  %11 = trunc i8 %10 to i1
  br i1 %11, label %20, label %12

12:                                               ; preds = %3
  %13 = load ptr, ptr %5, align 8
  %14 = getelementptr inbounds nuw %struct.SDL_AudioTrack, ptr %13, i32 0, i32 8
  %15 = load i64, ptr %14, align 8
  %16 = load ptr, ptr %5, align 8
  %17 = getelementptr inbounds nuw %struct.SDL_AudioTrack, ptr %16, i32 0, i32 9
  %18 = load i64, ptr %17, align 8
  %19 = icmp uge i64 %15, %18
  br i1 %19, label %20, label %21

20:                                               ; preds = %12, %3
  store i64 0, ptr %4, align 8
  br label %58

21:                                               ; preds = %12
  %22 = load i64, ptr %7, align 8
  %23 = load ptr, ptr %5, align 8
  %24 = getelementptr inbounds nuw %struct.SDL_AudioTrack, ptr %23, i32 0, i32 9
  %25 = load i64, ptr %24, align 8
  %26 = load ptr, ptr %5, align 8
  %27 = getelementptr inbounds nuw %struct.SDL_AudioTrack, ptr %26, i32 0, i32 8
  %28 = load i64, ptr %27, align 8
  %29 = sub i64 %25, %28
  %30 = icmp ult i64 %22, %29
  br i1 %30, label %31, label %33

31:                                               ; preds = %21
  %32 = load i64, ptr %7, align 8
  br label %41

33:                                               ; preds = %21
  %34 = load ptr, ptr %5, align 8
  %35 = getelementptr inbounds nuw %struct.SDL_AudioTrack, ptr %34, i32 0, i32 9
  %36 = load i64, ptr %35, align 8
  %37 = load ptr, ptr %5, align 8
  %38 = getelementptr inbounds nuw %struct.SDL_AudioTrack, ptr %37, i32 0, i32 8
  %39 = load i64, ptr %38, align 8
  %40 = sub i64 %36, %39
  br label %41

41:                                               ; preds = %33, %31
  %42 = phi i64 [ %32, %31 ], [ %40, %33 ]
  store i64 %42, ptr %7, align 8
  %43 = load ptr, ptr %5, align 8
  %44 = getelementptr inbounds nuw %struct.SDL_AudioTrack, ptr %43, i32 0, i32 6
  %45 = load ptr, ptr %44, align 8
  %46 = load ptr, ptr %5, align 8
  %47 = getelementptr inbounds nuw %struct.SDL_AudioTrack, ptr %46, i32 0, i32 8
  %48 = load i64, ptr %47, align 8
  %49 = getelementptr inbounds nuw i8, ptr %45, i64 %48
  %50 = load ptr, ptr %6, align 8
  %51 = load i64, ptr %7, align 8
  call void @llvm.memcpy.p0.p0.i64(ptr align 1 %49, ptr align 1 %50, i64 %51, i1 false)
  %52 = load i64, ptr %7, align 8
  %53 = load ptr, ptr %5, align 8
  %54 = getelementptr inbounds nuw %struct.SDL_AudioTrack, ptr %53, i32 0, i32 8
  %55 = load i64, ptr %54, align 8
  %56 = add i64 %55, %52
  store i64 %56, ptr %54, align 8
  %57 = load i64, ptr %7, align 8
  store i64 %57, ptr %4, align 8
  br label %58

58:                                               ; preds = %41, %20
  %59 = load i64, ptr %4, align 8
  ret i64 %59
}

; Function Attrs: nounwind uwtable
define internal void @FlushAudioTrack(ptr noundef %0) #0 {
  %2 = alloca ptr, align 8
  store ptr %0, ptr %2, align 8
  %3 = load ptr, ptr %2, align 8
  %4 = getelementptr inbounds nuw %struct.SDL_AudioTrack, ptr %3, i32 0, i32 2
  store i8 1, ptr %4, align 8
  ret void
}

; Function Attrs: nounwind uwtable
define hidden zeroext i1 @SDL_WriteToAudioQueue(ptr noundef %0, ptr noundef %1, ptr noundef %2, ptr noundef %3, i64 noundef %4) #0 {
  %6 = alloca i1, align 1
  %7 = alloca ptr, align 8
  %8 = alloca ptr, align 8
  %9 = alloca ptr, align 8
  %10 = alloca ptr, align 8
  %11 = alloca i64, align 8
  %12 = alloca ptr, align 8
  %13 = alloca i32, align 4
  %14 = alloca i64, align 8
  %15 = alloca ptr, align 8
  store ptr %0, ptr %7, align 8
  store ptr %1, ptr %8, align 8
  store ptr %2, ptr %9, align 8
  store ptr %3, ptr %10, align 8
  store i64 %4, ptr %11, align 8
  %16 = load i64, ptr %11, align 8
  %17 = icmp eq i64 %16, 0
  br i1 %17, label %18, label %19

18:                                               ; preds = %5
  store i1 true, ptr %6, align 1
  br label %92

19:                                               ; preds = %5
  call void @llvm.lifetime.start.p0(i64 8, ptr %12) #6
  %20 = load ptr, ptr %7, align 8
  %21 = getelementptr inbounds nuw %struct.SDL_AudioQueue, ptr %20, i32 0, i32 1
  %22 = load ptr, ptr %21, align 8
  store ptr %22, ptr %12, align 8
  %23 = load ptr, ptr %12, align 8
  %24 = icmp ne ptr %23, null
  br i1 %24, label %25, label %37

25:                                               ; preds = %19
  %26 = load ptr, ptr %12, align 8
  %27 = getelementptr inbounds nuw %struct.SDL_AudioTrack, ptr %26, i32 0, i32 0
  %28 = load ptr, ptr %8, align 8
  %29 = load ptr, ptr %12, align 8
  %30 = getelementptr inbounds nuw %struct.SDL_AudioTrack, ptr %29, i32 0, i32 1
  %31 = load ptr, ptr %30, align 8
  %32 = load ptr, ptr %9, align 8
  %33 = call zeroext i1 @SDL_AudioSpecsEqual(ptr noundef %27, ptr noundef %28, ptr noundef %31, ptr noundef %32)
  br i1 %33, label %36, label %34

34:                                               ; preds = %25
  %35 = load ptr, ptr %12, align 8
  call void @FlushAudioTrack(ptr noundef %35)
  br label %36

36:                                               ; preds = %34, %25
  br label %55

37:                                               ; preds = %19
  br label %38

38:                                               ; preds = %37
  br label %39

39:                                               ; preds = %38
  br label %40

40:                                               ; preds = %39
  %41 = load ptr, ptr %7, align 8
  %42 = load ptr, ptr %8, align 8
  %43 = load ptr, ptr %9, align 8
  %44 = call ptr @CreateChunkedAudioTrack(ptr noundef %41, ptr noundef %42, ptr noundef %43)
  store ptr %44, ptr %12, align 8
  %45 = load ptr, ptr %12, align 8
  %46 = icmp ne ptr %45, null
  br i1 %46, label %48, label %47

47:                                               ; preds = %40
  store i1 false, ptr %6, align 1
  store i32 1, ptr %13, align 4
  br label %91

48:                                               ; preds = %40
  %49 = load ptr, ptr %12, align 8
  %50 = load ptr, ptr %7, align 8
  %51 = getelementptr inbounds nuw %struct.SDL_AudioQueue, ptr %50, i32 0, i32 0
  store ptr %49, ptr %51, align 8
  %52 = load ptr, ptr %12, align 8
  %53 = load ptr, ptr %7, align 8
  %54 = getelementptr inbounds nuw %struct.SDL_AudioQueue, ptr %53, i32 0, i32 1
  store ptr %52, ptr %54, align 8
  br label %55

55:                                               ; preds = %48, %36
  br label %56

56:                                               ; preds = %89, %55
  call void @llvm.lifetime.start.p0(i64 8, ptr %14) #6
  %57 = load ptr, ptr %12, align 8
  %58 = load ptr, ptr %10, align 8
  %59 = load i64, ptr %11, align 8
  %60 = call i64 @WriteToAudioTrack(ptr noundef %57, ptr noundef %58, i64 noundef %59)
  store i64 %60, ptr %14, align 8
  %61 = load i64, ptr %14, align 8
  %62 = load ptr, ptr %10, align 8
  %63 = getelementptr inbounds nuw i8, ptr %62, i64 %61
  store ptr %63, ptr %10, align 8
  %64 = load i64, ptr %14, align 8
  %65 = load i64, ptr %11, align 8
  %66 = sub i64 %65, %64
  store i64 %66, ptr %11, align 8
  %67 = load i64, ptr %11, align 8
  %68 = icmp eq i64 %67, 0
  br i1 %68, label %69, label %70

69:                                               ; preds = %56
  store i32 4, ptr %13, align 4
  br label %87

70:                                               ; preds = %56
  call void @llvm.lifetime.start.p0(i64 8, ptr %15) #6
  %71 = load ptr, ptr %7, align 8
  %72 = load ptr, ptr %8, align 8
  %73 = load ptr, ptr %9, align 8
  %74 = call ptr @CreateChunkedAudioTrack(ptr noundef %71, ptr noundef %72, ptr noundef %73)
  store ptr %74, ptr %15, align 8
  %75 = load ptr, ptr %15, align 8
  %76 = icmp ne ptr %75, null
  br i1 %76, label %78, label %77

77:                                               ; preds = %70
  store i1 false, ptr %6, align 1
  store i32 1, ptr %13, align 4
  br label %86

78:                                               ; preds = %70
  %79 = load ptr, ptr %15, align 8
  %80 = load ptr, ptr %12, align 8
  %81 = getelementptr inbounds nuw %struct.SDL_AudioTrack, ptr %80, i32 0, i32 3
  store ptr %79, ptr %81, align 8
  %82 = load ptr, ptr %15, align 8
  %83 = load ptr, ptr %7, align 8
  %84 = getelementptr inbounds nuw %struct.SDL_AudioQueue, ptr %83, i32 0, i32 1
  store ptr %82, ptr %84, align 8
  %85 = load ptr, ptr %15, align 8
  store ptr %85, ptr %12, align 8
  store i32 0, ptr %13, align 4
  br label %86

86:                                               ; preds = %78, %77
  call void @llvm.lifetime.end.p0(i64 8, ptr %15) #6
  br label %87

87:                                               ; preds = %86, %69
  call void @llvm.lifetime.end.p0(i64 8, ptr %14) #6
  %88 = load i32, ptr %13, align 4
  switch i32 %88, label %91 [
    i32 0, label %89
    i32 4, label %90
  ]

89:                                               ; preds = %87
  br label %56

90:                                               ; preds = %87
  store i1 true, ptr %6, align 1
  store i32 1, ptr %13, align 4
  br label %91

91:                                               ; preds = %90, %87, %47
  call void @llvm.lifetime.end.p0(i64 8, ptr %12) #6
  br label %92

92:                                               ; preds = %91, %18
  %93 = load i1, ptr %6, align 1
  ret i1 %93
}