; Function Attrs: nounwind uwtable
define hidden noundef zeroext i1 @SDL_WriteToAudioQueue(ptr noundef %0, ptr noundef %1, ptr noundef %2, ptr noundef readonly captures(none) %3, i64 noundef %4) local_unnamed_addr #0 {
  %6 = icmp eq i64 %4, 0
  br i1 %6, label %.thread, label %7

7:                                                ; preds = %5
  %8 = getelementptr inbounds nuw i8, ptr %0, i64 8
  %9 = load ptr, ptr %8, align 8
  %.not = icmp eq ptr %9, null
  br i1 %.not, label %16, label %10

10:                                               ; preds = %7
  %11 = getelementptr inbounds nuw i8, ptr %9, i64 16
  %12 = load ptr, ptr %11, align 8
  %13 = tail call zeroext i1 @SDL_AudioSpecsEqual(ptr noundef nonnull %9, ptr noundef %1, ptr noundef %12, ptr noundef %2) #10
  br i1 %13, label %.preheader, label %14

14:                                               ; preds = %10
  %15 = getelementptr inbounds nuw i8, ptr %9, i64 24
  store i8 1, ptr %15, align 8
  br label %.preheader

16:                                               ; preds = %7
  %17 = tail call fastcc ptr @CreateChunkedAudioTrack(ptr noundef nonnull %0, ptr noundef %1, ptr noundef %2)
  %.not46 = icmp eq ptr %17, null
  br i1 %.not46, label %.thread, label %18

18:                                               ; preds = %16
  store ptr %17, ptr %0, align 8
  store ptr %17, ptr %8, align 8
  br label %.preheader

.preheader:                                       ; preds = %10, %14, %18
  %.138.ph = phi ptr [ %17, %18 ], [ %9, %14 ], [ %9, %10 ]
  br label %19

19:                                               ; preds = %.preheader, %40
  %.041 = phi i64 [ %36, %40 ], [ %4, %.preheader ]
  %.138 = phi ptr [ %39, %40 ], [ %.138.ph, %.preheader ]
  %.034 = phi ptr [ %35, %40 ], [ %3, %.preheader ]
  %20 = getelementptr inbounds nuw i8, ptr %.138, i64 24
  %21 = load i8, ptr %20, align 8, !range !7, !noundef !8
  %22 = trunc nuw i8 %21 to i1
  br i1 %22, label %WriteToAudioTrack.exit, label %23

23:                                               ; preds = %19
  %24 = getelementptr inbounds nuw i8, ptr %.138, i64 72
  %25 = load i64, ptr %24, align 8
  %26 = getelementptr inbounds nuw i8, ptr %.138, i64 80
  %27 = load i64, ptr %26, align 8
  %.not.i = icmp ult i64 %25, %27
  br i1 %.not.i, label %28, label %WriteToAudioTrack.exit

28:                                               ; preds = %23
  %29 = sub nuw i64 %27, %25
  %..i = tail call i64 @llvm.umin.i64(i64 %.041, i64 %29)
  %30 = getelementptr inbounds nuw i8, ptr %.138, i64 56
  %31 = load ptr, ptr %30, align 8
  %32 = getelementptr inbounds nuw i8, ptr %31, i64 %25
  tail call void @llvm.memcpy.p0.p0.i64(ptr align 1 %32, ptr readonly align 1 %.034, i64 %..i, i1 false)
  %33 = load i64, ptr %24, align 8
  %34 = add i64 %33, %..i
  store i64 %34, ptr %24, align 8
  br label %WriteToAudioTrack.exit

WriteToAudioTrack.exit:                           ; preds = %19, %23, %28
  %.0.i = phi i64 [ %..i, %28 ], [ 0, %23 ], [ 0, %19 ]
  %35 = getelementptr inbounds nuw i8, ptr %.034, i64 %.0.i
  %36 = sub i64 %.041, %.0.i
  %37 = icmp eq i64 %36, 0
  br i1 %37, label %.thread, label %38

38:                                               ; preds = %WriteToAudioTrack.exit
  %39 = tail call fastcc ptr @CreateChunkedAudioTrack(ptr noundef nonnull %0, ptr noundef %1, ptr noundef %2)
  %.not47 = icmp eq ptr %39, null
  br i1 %.not47, label %.thread, label %40

40:                                               ; preds = %38
  %41 = getelementptr inbounds nuw i8, ptr %.138, i64 32
  store ptr %39, ptr %41, align 8
  store ptr %39, ptr %8, align 8
  br label %19

.thread:                                          ; preds = %38, %WriteToAudioTrack.exit, %16, %5
  %.0 = phi i1 [ true, %5 ], [ false, %16 ], [ %37, %WriteToAudioTrack.exit ], [ %37, %38 ]
  ret i1 %.0
}